target datalayout = "e-m:e-p270:32:32-p271:32:32-p272:64:64-i64:64-i128:128-f80:128-n8:16:32:64-S128"
target triple = "x86_64-pc-linux-gnu"

%struct.WOLFSSL_BUFFER_INFO = type { ptr, i32 }
%struct.WOLFSSL = type <{ ptr, ptr, ptr, ptr, [48 x i8], [48 x i8], ptr, ptr, ptr, ptr, ptr, ptr, ptr, ptr, ptr, ptr, ptr, ptr, ptr, i32, [4 x i8], %struct.WOLFSSL_CIPHER, ptr, %struct.Ciphers, %struct.Ciphers, [8 x i8], %struct.Buffers, ptr, ptr, %struct.WOLFSSL_ALERT_HISTORY, %struct.WOLFSSL_ALERT, i32, i32, i32, i32, i32, i32, i32, i16, [2 x i8], i32, i8, %struct.RecordLayerHeader, %struct.MsgsReceived, %struct.ProtocolVersion, %struct.ProtocolVersion, %struct.CipherSpecs, [2 x i8], %struct.Keys, %struct.Options, ptr, i8, i8, i16, [10 x i16], i8, i8, i16, i16, [38 x i8], i32, i32, [4 x i8], ptr, i8, i8, [6 x i8], ptr, ptr, i16, i8, i8, i32, i8, [3 x i8], i32, %struct.OneTimeAuth, ptr }>
%struct.WOLFSSL_CIPHER = type { i8, i8, ptr }
%struct.Ciphers = type { ptr, ptr, ptr, ptr, i8, i8 }
%struct.Buffers = type { %struct.bufferStatic, %struct.bufferStatic, %struct.WOLFSSL_BUFFER_INFO, %struct.WOLFSSL_BUFFER_INFO, %struct.WOLFSSL_BUFFER_INFO, %struct.WOLFSSL_BUFFER_INFO, i32, i32, i8, i8, i8, i8, %struct.WOLFSSL_BUFFER_INFO, %struct.WOLFSSL_BUFFER_INFO, %struct.WOLFSSL_BUFFER_INFO, %struct.WOLFSSL_BUFFER_INFO, ptr, ptr, ptr, i8, i8, i32, i32, ptr, i32, [1 x ptr] }
%struct.bufferStatic = type { [5 x i8], ptr, i32, i32, i32, i8, i8 }
%struct.WOLFSSL_ALERT_HISTORY = type { %struct.WOLFSSL_ALERT, %struct.WOLFSSL_ALERT }
%struct.WOLFSSL_ALERT = type { i32, i32 }
%struct.RecordLayerHeader = type { i8, i8, i8, [2 x i8] }
%struct.MsgsReceived = type { i32 }
%struct.ProtocolVersion = type { i8, i8 }
%struct.CipherSpecs = type { i16, i16, i16, i16, i8, i8, i8, i8, i8, i8, i8, i8 }
%struct.Keys = type { [64 x i8], [64 x i8], [32 x i8], [32 x i8], [16 x i8], [16 x i8], [8 x i8], [12 x i8], [12 x i8], i32, i32, i32, i32, i32, i32, i8, i8, i8, i8 }
%struct.Options = type { i64, i64, i8, i8, i8, i8, i8, i8, i8, i8, i8, i8, i8, i8, i8, i8, i8, i8, i8, i8, i8, i8, i8, i16, i16, i16, i16, i16, i8 }
%struct.OneTimeAuth = type { ptr, i8 }

; Function Attrs: nounwind uwtable
define ptr @wolfSSL_CIPHER_get_name(ptr noundef %0) #0 {
  %2 = alloca ptr, align 8
  %3 = alloca ptr, align 8
  store ptr %0, ptr %3, align 8, !tbaa !279
  br label %4

4:                                                ; preds = %1
  br label %5

5:                                                ; preds = %4
  %6 = load ptr, ptr %3, align 8, !tbaa !279
  %7 = icmp eq ptr %6, null
  br i1 %7, label %8, label %9

8:                                                ; preds = %5
  store ptr null, ptr %2, align 8
  br label %17

9:                                                ; preds = %5
  %10 = load ptr, ptr %3, align 8, !tbaa !279
  %11 = getelementptr inbounds nuw %struct.WOLFSSL_CIPHER, ptr %10, i32 0, i32 0
  %12 = load i8, ptr %11, align 8, !tbaa !281
  %13 = load ptr, ptr %3, align 8, !tbaa !279
  %14 = getelementptr inbounds nuw %struct.WOLFSSL_CIPHER, ptr %13, i32 0, i32 1
  %15 = load i8, ptr %14, align 1, !tbaa !282
  %16 = call ptr @GetCipherNameIana(i8 noundef zeroext %12, i8 noundef zeroext %15)
  store ptr %16, ptr %2, align 8
  br label %17

17:                                               ; preds = %9, %8
  %18 = load ptr, ptr %2, align 8
  ret ptr %18
}

; Function Attrs: nounwind uwtable
define ptr @wolfSSL_get_current_cipher(ptr noundef %0) #0 {
  %2 = alloca ptr, align 8
  %3 = alloca ptr, align 8
  store ptr %0, ptr %3, align 8, !tbaa !61
  br label %4

4:                                                ; preds = %1
  br label %5

5:                                                ; preds = %4
  %6 = load ptr, ptr %3, align 8, !tbaa !61
  %7 = icmp ne ptr %6, null
  br i1 %7, label %8, label %25

8:                                                ; preds = %5
  %9 = load ptr, ptr %3, align 8, !tbaa !61
  %10 = getelementptr inbounds nuw %struct.WOLFSSL, ptr %9, i32 0, i32 49
  %11 = getelementptr inbounds nuw %struct.Options, ptr %10, i32 0, i32 7
  %12 = load i8, ptr %11, align 1, !tbaa !112
  %13 = load ptr, ptr %3, align 8, !tbaa !61
  %14 = getelementptr inbounds nuw %struct.WOLFSSL, ptr %13, i32 0, i32 21
  %15 = getelementptr inbounds nuw %struct.WOLFSSL_CIPHER, ptr %14, i32 0, i32 0
  store i8 %12, ptr %15, align 16, !tbaa !277
  %16 = load ptr, ptr %3, align 8, !tbaa !61
  %17 = getelementptr inbounds nuw %struct.WOLFSSL, ptr %16, i32 0, i32 49
  %18 = getelementptr inbounds nuw %struct.Options, ptr %17, i32 0, i32 8
  %19 = load i8, ptr %18, align 2, !tbaa !114
  %20 = load ptr, ptr %3, align 8, !tbaa !61
  %21 = getelementptr inbounds nuw %struct.WOLFSSL, ptr %20, i32 0, i32 21
  %22 = getelementptr inbounds nuw %struct.WOLFSSL_CIPHER, ptr %21, i32 0, i32 1
  store i8 %19, ptr %22, align 1, !tbaa !278
  %23 = load ptr, ptr %3, align 8, !tbaa !61
  %24 = getelementptr inbounds nuw %struct.WOLFSSL, ptr %23, i32 0, i32 21
  store ptr %24, ptr %2, align 8
  br label %26

25:                                               ; preds = %5
  store ptr null, ptr %2, align 8
  br label %26

26:                                               ; preds = %25, %8
  %27 = load ptr, ptr %2, align 8
  ret ptr %27
}

; Function Attrs: nounwind uwtable
define ptr @wolfSSL_get_cipher(ptr noundef %0) #0 {
  %2 = alloca ptr, align 8
  store ptr %0, ptr %2, align 8, !tbaa !61
  br label %3

3:                                                ; preds = %1
  br label %4

4:                                                ; preds = %3
  %5 = load ptr, ptr %2, align 8, !tbaa !61
  %6 = call ptr @wolfSSL_get_current_cipher(ptr noundef %5)
  %7 = call ptr @wolfSSL_CIPHER_get_name(ptr noundef %6)
  ret ptr %7
}