; Function Attrs: nounwind uwtable
define ptr @wolfSSL_get_cipher(ptr noundef captures(address_is_null) %0) local_unnamed_addr #0 {
  %.not.i = icmp eq ptr %0, null
  br i1 %.not.i, label %wolfSSL_CIPHER_get_name.exit, label %2

2:                                                ; preds = %1
  %3 = getelementptr inbounds nuw i8, ptr %0, i64 1037
  %4 = load i8, ptr %3, align 1, !tbaa !93
  %5 = getelementptr inbounds nuw i8, ptr %0, i64 240
  store i8 %4, ptr %5, align 16, !tbaa !249
  %6 = getelementptr inbounds nuw i8, ptr %0, i64 1038
  %7 = load i8, ptr %6, align 2, !tbaa !95
  %8 = getelementptr inbounds nuw i8, ptr %0, i64 241
  store i8 %7, ptr %8, align 1, !tbaa !250
  %9 = tail call ptr @GetCipherNameIana(i8 noundef zeroext %4, i8 noundef zeroext %7) #22
  br label %wolfSSL_CIPHER_get_name.exit

wolfSSL_CIPHER_get_name.exit:                     ; preds = %1, %2
  %.0.i1 = phi ptr [ %9, %2 ], [ null, %1 ]
  ret ptr %.0.i1
}